; Function Attrs: mustprogress uwtable
define internal fastcc noundef zeroext i1 @_ZN32pxrInternal_v0_24__pxrReserved__L8_IsCloseIfEEbRKNS_7VtArrayIT_EES5_(ptr noundef nonnull align 8 dereferenceable(40) %0, ptr noundef nonnull align 8 dereferenceable(40) %1) unnamed_addr #0 {
  %3 = tail call noundef i64 @_ZNK32pxrInternal_v0_24__pxrReserved__7VtArrayIfE4sizeEv(ptr noundef nonnull align 8 dereferenceable(40) %0)
  %4 = tail call noundef i64 @_ZNK32pxrInternal_v0_24__pxrReserved__7VtArrayIfE4sizeEv(ptr noundef nonnull align 8 dereferenceable(40) %1)
  %.not = icmp eq i64 %3, %4
  br i1 %.not, label %.preheader, label %.loopexit

.preheader:                                       ; preds = %2
  %5 = tail call noundef i64 @_ZNK32pxrInternal_v0_24__pxrReserved__7VtArrayIfE4sizeEv(ptr noundef nonnull align 8 dereferenceable(40) %0)
  %.not14 = icmp eq i64 %5, 0
  br i1 %.not14, label %.loopexit, label %.lr.ph

6:                                                ; preds = %.lr.ph
  %7 = add nuw i64 %.011, 1
  %8 = tail call noundef i64 @_ZNK32pxrInternal_v0_24__pxrReserved__7VtArrayIfE4sizeEv(ptr noundef nonnull align 8 dereferenceable(40) %0)
  %9 = icmp ult i64 %7, %8
  br i1 %9, label %.lr.ph, label %.loopexit, !llvm.loop !20

.lr.ph:                                           ; preds = %.preheader, %6
  %.011 = phi i64 [ %7, %6 ], [ 0, %.preheader ]
  %10 = tail call noundef nonnull align 4 dereferenceable(4) ptr @_ZNK32pxrInternal_v0_24__pxrReserved__7VtArrayIfEixEm(ptr noundef nonnull align 8 dereferenceable(40) %0, i64 noundef %.011)
  %11 = tail call noundef nonnull align 4 dereferenceable(4) ptr @_ZNK32pxrInternal_v0_24__pxrReserved__7VtArrayIfEixEm(ptr noundef nonnull align 8 dereferenceable(40) %1, i64 noundef %.011)
  %.val = load float, ptr %10, align 4
  %.val10 = load float, ptr %11, align 4
  %12 = fpext float %.val to double
  %13 = fpext float %.val10 to double
  %14 = fsub double %12, %13
  %15 = tail call double @llvm.fabs.f64(double %14)
  %16 = fcmp olt double %15, 0x3EB0C6F7A0B5ED8D
  br i1 %16, label %6, label %.loopexit

.loopexit:                                        ; preds = %.lr.ph, %6, %.preheader, %2
  %.09 = phi i1 [ false, %2 ], [ true, %.preheader ], [ %16, %6 ], [ %16, %.lr.ph ]
  ret i1 %.09
}